target datalayout = "e-m:e-p270:32:32-p271:32:32-p272:64:64-i64:64-i128:128-f80:128-n8:16:32:64-S128"
target triple = "x86_64-pc-linux-gnu"

%struct.AVPacketSideData = type { ptr, i64, i32 }

; Function Attrs: nounwind uwtable
define void @av_packet_side_data_free(ptr noundef %0, ptr noundef %1) #0 {
  %3 = alloca ptr, align 8
  %4 = alloca ptr, align 8
  %5 = alloca ptr, align 8
  %6 = alloca i32, align 4
  %7 = alloca i32, align 4
  store ptr %0, ptr %3, align 8, !tbaa !91
  store ptr %1, ptr %4, align 8, !tbaa !93
  call void @llvm.lifetime.start.p0(i64 8, ptr %5) #9
  %8 = load ptr, ptr %3, align 8, !tbaa !91
  %9 = load ptr, ptr %8, align 8, !tbaa !47
  store ptr %9, ptr %5, align 8, !tbaa !47
  call void @llvm.lifetime.start.p0(i64 4, ptr %6) #9
  %10 = load ptr, ptr %4, align 8, !tbaa !93
  %11 = load i32, ptr %10, align 4, !tbaa !28
  store i32 %11, ptr %6, align 4, !tbaa !28
  call void @llvm.lifetime.start.p0(i64 4, ptr %7) #9
  store i32 0, ptr %7, align 4, !tbaa !28
  br label %12

12:                                               ; preds = %24, %2
  %13 = load i32, ptr %7, align 4, !tbaa !28
  %14 = load i32, ptr %6, align 4, !tbaa !28
  %15 = icmp slt i32 %13, %14
  br i1 %15, label %17, label %16

16:                                               ; preds = %12
  call void @llvm.lifetime.end.p0(i64 4, ptr %7) #9
  br label %27

17:                                               ; preds = %12
  %18 = load ptr, ptr %5, align 8, !tbaa !47
  %19 = load i32, ptr %7, align 4, !tbaa !28
  %20 = sext i32 %19 to i64
  %21 = getelementptr inbounds %struct.AVPacketSideData, ptr %18, i64 %20
  %22 = getelementptr inbounds nuw %struct.AVPacketSideData, ptr %21, i32 0, i32 0
  %23 = load ptr, ptr %22, align 8, !tbaa !50
  call void @av_free(ptr noundef %23)
  br label %24

24:                                               ; preds = %17
  %25 = load i32, ptr %7, align 4, !tbaa !28
  %26 = add nsw i32 %25, 1
  store i32 %26, ptr %7, align 4, !tbaa !28
  br label %12, !llvm.loop !98

27:                                               ; preds = %16
  %28 = load ptr, ptr %3, align 8, !tbaa !91
  call void @av_freep(ptr noundef %28)
  %29 = load ptr, ptr %4, align 8, !tbaa !93
  store i32 0, ptr %29, align 4, !tbaa !28
  call void @llvm.lifetime.end.p0(i64 4, ptr %6) #9
  call void @llvm.lifetime.end.p0(i64 8, ptr %5) #9
  ret void
}