; Function Attrs: nounwind uwtable
define void @av_packet_side_data_free(ptr noundef %0, ptr noundef captures(none) %1) local_unnamed_addr #3 {
  %3 = load ptr, ptr %0, align 8, !tbaa !53
  %4 = load i32, ptr %1, align 4, !tbaa !52
  %5 = icmp sgt i32 %4, 0
  br i1 %5, label %.lr.ph.preheader, label %._crit_edge

.lr.ph.preheader:                                 ; preds = %2
  %wide.trip.count = zext nneg i32 %4 to i64
  br label %.lr.ph

._crit_edge:                                      ; preds = %.lr.ph, %2
  tail call void @av_freep(ptr noundef nonnull %0) #16
  store i32 0, ptr %1, align 4, !tbaa !52
  ret void

.lr.ph:                                           ; preds = %.lr.ph.preheader, %.lr.ph
  %indvars.iv = phi i64 [ 0, %.lr.ph.preheader ], [ %indvars.iv.next, %.lr.ph ]
  %6 = getelementptr inbounds nuw %struct.AVPacketSideData, ptr %3, i64 %indvars.iv
  %7 = load ptr, ptr %6, align 8, !tbaa !37
  tail call void @av_free(ptr noundef %7) #16
  %indvars.iv.next = add nuw nsw i64 %indvars.iv, 1
  %exitcond.not = icmp eq i64 %indvars.iv.next, %wide.trip.count
  br i1 %exitcond.not, label %._crit_edge, label %.lr.ph, !llvm.loop !71
}